(dp1
S'failed'
p2
(lp3
S'84'
p4
aS'87'
p5
aS'88'
p6
aS'89'
p7
aS'122'
p8
aS'132'
p9
aS'136'
p10
aS'137'
p11
aS'138'
p12
aS'139'
p13
aS'143'
p14
aS'144'
p15
aS'145'
p16
aS'146'
p17
aS'147'
p18
aS'148'
p19
aS'149'
p20
aS'150'
p21
aS'152'
p22
aS'153'
p23
aS'156'
p24
aS'157'
p25
aS'158'
p26
aS'159'
p27
aS'162'
p28
aS'163'
p29
aS'164'
p30
aS'165'
p31
aS'166'
p32
aS'168'
p33
aS'191'
p34
asS'source_names'
p35
(lp36
S'.'
asS'ids'
p37
(dp38
I1
(S'/home/itais/workspace/infinidat/infi.clickhouse_orm/tests/test_alias_fields.py'
S'tests.test_alias_fields'
p39
S'MaterializedFieldsTest.test_assignment_error'
tp40
sI2
(S'/home/itais/workspace/infinidat/infi.clickhouse_orm/tests/test_alias_fields.py'
g39
S'MaterializedFieldsTest.test_duplicate_default'
tp41
sI3
(S'/home/itais/workspace/infinidat/infi.clickhouse_orm/tests/test_alias_fields.py'
g39
S'MaterializedFieldsTest.test_insert_and_select'
tp42
sI4
(S'/home/itais/workspace/infinidat/infi.clickhouse_orm/tests/test_alias_fields.py'
g39
S'MaterializedFieldsTest.test_wrong_field'
tp43
sI5
(S'/home/itais/workspace/infinidat/infi.clickhouse_orm/tests/test_array_fields.py'
S'tests.test_array_fields'
p44
S'ArrayFieldsTest.test_assignment_error'
tp45
sI6
(S'/home/itais/workspace/infinidat/infi.clickhouse_orm/tests/test_array_fields.py'
g44
S'ArrayFieldsTest.test_conversion'
tp46
sI7
(S'/home/itais/workspace/infinidat/infi.clickhouse_orm/tests/test_array_fields.py'
g44
S'ArrayFieldsTest.test_insert_and_select'
tp47
sI8
(S'/home/itais/workspace/infinidat/infi.clickhouse_orm/tests/test_array_fields.py'
g44
S'ArrayFieldsTest.test_invalid_inner_field'
tp48
sI9
(S'/home/itais/workspace/infinidat/infi.clickhouse_orm/tests/test_array_fields.py'
g44
S'ArrayFieldsTest.test_parse_array'
tp49
sI10
(S'/home/itais/workspace/infinidat/infi.clickhouse_orm/tests/test_buffer.py'
S'tests.test_buffer'
p50
S'BufferTestCase.test_insert_buffer'
tp51
sI11
(S'/home/itais/workspace/infinidat/infi.clickhouse_orm/tests/test_compressed_fields.py'
S'tests.test_compressed_fields'
p52
S'CompressedFieldsTestCase.test_assignment'
tp53
sI12
(S'/home/itais/workspace/infinidat/infi.clickhouse_orm/tests/test_compressed_fields.py'
g52
S'CompressedFieldsTestCase.test_confirm_compression_codec'
tp54
sI13
(S'/home/itais/workspace/infinidat/infi.clickhouse_orm/tests/test_compressed_fields.py'
g52
S'CompressedFieldsTestCase.test_defaults'
tp55
sI14
(S'/home/itais/workspace/infinidat/infi.clickhouse_orm/tests/test_compressed_fields.py'
g52
S'CompressedFieldsTestCase.test_string_conversion'
tp56
sI15
(S'/home/itais/workspace/infinidat/infi.clickhouse_orm/tests/test_compressed_fields.py'
g52
S'CompressedFieldsTestCase.test_to_dict'
tp57
sI16
(S'/home/itais/workspace/infinidat/infi.clickhouse_orm/tests/test_custom_fields.py'
S'tests.test_custom_fields'
p58
S'CustomFieldsTest.test_boolean_field'
tp59
sI17
(S'/home/itais/workspace/infinidat/infi.clickhouse_orm/tests/test_database.py'
S'tests.test_database'
p60
S'DatabaseTestCase.test_add_setting'
tp61
sI18
(S'/home/itais/workspace/infinidat/infi.clickhouse_orm/tests/test_database.py'
g60
S'DatabaseTestCase.test_count'
tp62
sI19
(S'/home/itais/workspace/infinidat/infi.clickhouse_orm/tests/test_database.py'
g60
S'DatabaseTestCase.test_does_table_exist'
tp63
sI20
(S'/home/itais/workspace/infinidat/infi.clickhouse_orm/tests/test_database.py'
g60
S'DatabaseTestCase.test_dollar_in_select'
tp64
sI21
(S'/home/itais/workspace/infinidat/infi.clickhouse_orm/tests/test_database.py'
g60
S'DatabaseTestCase.test_insert__empty'
tp65
sI22
(S'/home/itais/workspace/infinidat/infi.clickhouse_orm/tests/test_database.py'
g60
S'DatabaseTestCase.test_insert__generator'
tp66
sI23
(S'/home/itais/workspace/infinidat/infi.clickhouse_orm/tests/test_database.py'
g60
S'DatabaseTestCase.test_insert__iterator'
tp67
sI24
(S'/home/itais/workspace/infinidat/infi.clickhouse_orm/tests/test_database.py'
g60
S'DatabaseTestCase.test_insert__list'
tp68
sI25
(S'/home/itais/workspace/infinidat/infi.clickhouse_orm/tests/test_database.py'
g60
S'DatabaseTestCase.test_insert__medium_batches'
tp69
sI26
(S'/home/itais/workspace/infinidat/infi.clickhouse_orm/tests/test_database.py'
g60
S'DatabaseTestCase.test_insert__small_batches'
tp70
sI27
(S'/home/itais/workspace/infinidat/infi.clickhouse_orm/tests/test_database.py'
g60
S'DatabaseTestCase.test_invalid_user'
tp71
sI28
(S'/home/itais/workspace/infinidat/infi.clickhouse_orm/tests/test_database.py'
g60
S'DatabaseTestCase.test_missing_engine'
tp72
sI29
(S'/home/itais/workspace/infinidat/infi.clickhouse_orm/tests/test_database.py'
g60
S'DatabaseTestCase.test_nonexisting_db'
tp73
sI30
(S'/home/itais/workspace/infinidat/infi.clickhouse_orm/tests/test_database.py'
g60
S'DatabaseTestCase.test_pagination'
tp74
sI31
(S'/home/itais/workspace/infinidat/infi.clickhouse_orm/tests/test_database.py'
g60
S'DatabaseTestCase.test_pagination_empty_page'
tp75
sI32
(S'/home/itais/workspace/infinidat/infi.clickhouse_orm/tests/test_database.py'
g60
S'DatabaseTestCase.test_pagination_invalid_page'
tp76
sI33
(S'/home/itais/workspace/infinidat/infi.clickhouse_orm/tests/test_database.py'
g60
S'DatabaseTestCase.test_pagination_last_page'
tp77
sI34
(S'/home/itais/workspace/infinidat/infi.clickhouse_orm/tests/test_database.py'
g60
S'DatabaseTestCase.test_pagination_with_conditions'
tp78
sI35
(S'/home/itais/workspace/infinidat/infi.clickhouse_orm/tests/test_database.py'
g60
S'DatabaseTestCase.test_potentially_problematic_field_names'
tp79
sI36
(S'/home/itais/workspace/infinidat/infi.clickhouse_orm/tests/test_database.py'
g60
S'DatabaseTestCase.test_preexisting_db'
tp80
sI37
(S'/home/itais/workspace/infinidat/infi.clickhouse_orm/tests/test_database.py'
g60
S'DatabaseTestCase.test_raw'
tp81
sI38
(S'/home/itais/workspace/infinidat/infi.clickhouse_orm/tests/test_database.py'
g60
S'DatabaseTestCase.test_select'
tp82
sI39
(S'/home/itais/workspace/infinidat/infi.clickhouse_orm/tests/test_database.py'
g60
S'DatabaseTestCase.test_select_ad_hoc_model'
tp83
sI40
(S'/home/itais/workspace/infinidat/infi.clickhouse_orm/tests/test_database.py'
g60
S'DatabaseTestCase.test_select_partial_fields'
tp84
sI41
(S'/home/itais/workspace/infinidat/infi.clickhouse_orm/tests/test_database.py'
g60
S'DatabaseTestCase.test_select_with_totals'
tp85
sI42
(S'/home/itais/workspace/infinidat/infi.clickhouse_orm/tests/test_database.py'
g60
S'DatabaseTestCase.test_special_chars'
tp86
sI43
(S'/home/itais/workspace/infinidat/infi.clickhouse_orm/tests/test_datetime_fields.py'
S'tests.test_datetime_fields'
p87
S'DateFieldsTest.test_ad_hoc_model'
tp88
sI44
(S'/home/itais/workspace/infinidat/infi.clickhouse_orm/tests/test_decimal_fields.py'
S'tests.test_decimal_fields'
p89
S'DecimalFieldsTest.test_ad_hoc_model'
tp90
sI45
(S'/home/itais/workspace/infinidat/infi.clickhouse_orm/tests/test_decimal_fields.py'
g89
S'DecimalFieldsTest.test_aggregation'
tp91
sI46
(S'/home/itais/workspace/infinidat/infi.clickhouse_orm/tests/test_decimal_fields.py'
g89
S'DecimalFieldsTest.test_assignment_error'
tp92
sI47
(S'/home/itais/workspace/infinidat/infi.clickhouse_orm/tests/test_decimal_fields.py'
g89
S'DecimalFieldsTest.test_assignment_ok'
tp93
sI48
(S'/home/itais/workspace/infinidat/infi.clickhouse_orm/tests/test_decimal_fields.py'
g89
S'DecimalFieldsTest.test_insert_and_select'
tp94
sI49
(S'/home/itais/workspace/infinidat/infi.clickhouse_orm/tests/test_decimal_fields.py'
g89
S'DecimalFieldsTest.test_min_max'
tp95
sI50
(S'/home/itais/workspace/infinidat/infi.clickhouse_orm/tests/test_decimal_fields.py'
g89
S'DecimalFieldsTest.test_precision_and_scale'
tp96
sI51
(S'/home/itais/workspace/infinidat/infi.clickhouse_orm/tests/test_decimal_fields.py'
g89
S'DecimalFieldsTest.test_rounding'
tp97
sI52
(S'/home/itais/workspace/infinidat/infi.clickhouse_orm/tests/test_engines.py'
S'tests.test_engines'
p98
S'DistributedTestCase.test_bad_cluster_name'
tp99
sI53
(S'/home/itais/workspace/infinidat/infi.clickhouse_orm/tests/test_engines.py'
g98
S'DistributedTestCase.test_insert_distributed_select_local'
tp100
sI54
(S'/home/itais/workspace/infinidat/infi.clickhouse_orm/tests/test_engines.py'
g98
S'DistributedTestCase.test_insert_local_select_distributed'
tp101
sI55
(S'/home/itais/workspace/infinidat/infi.clickhouse_orm/tests/test_engines.py'
g98
S'DistributedTestCase.test_minimal_engine'
tp102
sI56
(S'/home/itais/workspace/infinidat/infi.clickhouse_orm/tests/test_engines.py'
g98
S'DistributedTestCase.test_minimal_engine_no_superclasses'
tp103
sI57
(S'/home/itais/workspace/infinidat/infi.clickhouse_orm/tests/test_engines.py'
g98
S'DistributedTestCase.test_minimal_engine_two_superclasses'
tp104
sI58
(S'/home/itais/workspace/infinidat/infi.clickhouse_orm/tests/test_engines.py'
g98
S'DistributedTestCase.test_verbose_engine_two_superclasses'
tp105
sI59
(S'/home/itais/workspace/infinidat/infi.clickhouse_orm/tests/test_engines.py'
g98
S'DistributedTestCase.test_with_table_name'
tp106
sI60
(S'/home/itais/workspace/infinidat/infi.clickhouse_orm/tests/test_engines.py'
g98
S'DistributedTestCase.test_without_table_name'
tp107
sI61
(S'/home/itais/workspace/infinidat/infi.clickhouse_orm/tests/test_engines.py'
g98
S'EnginesTestCase.test_collapsing_merge_tree'
tp108
sI62
(S'/home/itais/workspace/infinidat/infi.clickhouse_orm/tests/test_engines.py'
g98
S'EnginesTestCase.test_custom_partitioning'
tp109
sI63
(S'/home/itais/workspace/infinidat/infi.clickhouse_orm/tests/test_engines.py'
g98
S'EnginesTestCase.test_log'
tp110
sI64
(S'/home/itais/workspace/infinidat/infi.clickhouse_orm/tests/test_engines.py'
g98
S'EnginesTestCase.test_memory'
tp111
sI65
(S'/home/itais/workspace/infinidat/infi.clickhouse_orm/tests/test_engines.py'
g98
S'EnginesTestCase.test_merge'
tp112
sI66
(S'/home/itais/workspace/infinidat/infi.clickhouse_orm/tests/test_engines.py'
g98
S'EnginesTestCase.test_merge_tree'
tp113
sI67
(S'/home/itais/workspace/infinidat/infi.clickhouse_orm/tests/test_engines.py'
g98
S'EnginesTestCase.test_merge_tree_with_granularity'
tp114
sI68
(S'/home/itais/workspace/infinidat/infi.clickhouse_orm/tests/test_engines.py'
g98
S'EnginesTestCase.test_merge_tree_with_sampling'
tp115
sI69
(S'/home/itais/workspace/infinidat/infi.clickhouse_orm/tests/test_engines.py'
g98
S'EnginesTestCase.test_replacing_merge_tree'
tp116
sI70
(S'/home/itais/workspace/infinidat/infi.clickhouse_orm/tests/test_engines.py'
g98
S'EnginesTestCase.test_replicated_merge_tree'
tp117
sI71
(S'/home/itais/workspace/infinidat/infi.clickhouse_orm/tests/test_engines.py'
g98
S'EnginesTestCase.test_replicated_merge_tree_incomplete'
tp118
sI72
(S'/home/itais/workspace/infinidat/infi.clickhouse_orm/tests/test_engines.py'
g98
S'EnginesTestCase.test_summing_merge_tree'
tp119
sI73
(S'/home/itais/workspace/infinidat/infi.clickhouse_orm/tests/test_engines.py'
g98
S'EnginesTestCase.test_tiny_log'
tp120
sI74
(S'/home/itais/workspace/infinidat/infi.clickhouse_orm/tests/test_enum_fields.py'
S'tests.test_enum_fields'
p121
S'EnumFieldsTest.test_ad_hoc_model'
tp122
sI75
(S'/home/itais/workspace/infinidat/infi.clickhouse_orm/tests/test_enum_fields.py'
g121
S'EnumFieldsTest.test_assignment_error'
tp123
sI76
(S'/home/itais/workspace/infinidat/infi.clickhouse_orm/tests/test_enum_fields.py'
g121
S'EnumFieldsTest.test_conversion'
tp124
sI77
(S'/home/itais/workspace/infinidat/infi.clickhouse_orm/tests/test_enum_fields.py'
g121
S'EnumFieldsTest.test_default_value'
tp125
sI78
(S'/home/itais/workspace/infinidat/infi.clickhouse_orm/tests/test_enum_fields.py'
g121
S'EnumFieldsTest.test_enum_array'
tp126
sI79
(S'/home/itais/workspace/infinidat/infi.clickhouse_orm/tests/test_enum_fields.py'
g121
S'EnumFieldsTest.test_insert_and_select'
tp127
sI80
(S'/home/itais/workspace/infinidat/infi.clickhouse_orm/tests/test_fixed_string_fields.py'
S'tests.test_fixed_string_fields'
p128
S'FixedStringFieldsTest.test_ad_hoc_model'
tp129
sI81
(S'/home/itais/workspace/infinidat/infi.clickhouse_orm/tests/test_fixed_string_fields.py'
g128
S'FixedStringFieldsTest.test_assignment_error'
tp130
sI82
(S'/home/itais/workspace/infinidat/infi.clickhouse_orm/tests/test_fixed_string_fields.py'
g128
S'FixedStringFieldsTest.test_insert_and_select'
tp131
sI83
(S'/home/itais/workspace/infinidat/infi.clickhouse_orm/tests/test_funcs.py'
S'tests.test_funcs'
p132
S'FuncsTestCase.test_arithmetic_operators'
tp133
sI84
(S'/home/itais/workspace/infinidat/infi.clickhouse_orm/tests/test_funcs.py'
g132
S'FuncsTestCase.test_base64_functions'
tp134
sI85
(S'/home/itais/workspace/infinidat/infi.clickhouse_orm/tests/test_funcs.py'
g132
S'FuncsTestCase.test_comparison_operators'
tp135
sI86
(S'/home/itais/workspace/infinidat/infi.clickhouse_orm/tests/test_funcs.py'
g132
S'FuncsTestCase.test_date_functions'
tp136
sI87
(S'/home/itais/workspace/infinidat/infi.clickhouse_orm/tests/test_funcs.py'
g132
S'FuncsTestCase.test_filter_date_field'
tp137
sI88
(S'/home/itais/workspace/infinidat/infi.clickhouse_orm/tests/test_funcs.py'
g132
S'FuncsTestCase.test_filter_float_field'
tp138
sI89
(S'/home/itais/workspace/infinidat/infi.clickhouse_orm/tests/test_funcs.py'
g132
S'FuncsTestCase.test_func_as_field_value'
tp139
sI90
(S'/home/itais/workspace/infinidat/infi.clickhouse_orm/tests/test_funcs.py'
g132
S'FuncsTestCase.test_func_to_sql'
tp140
sI91
(S'/home/itais/workspace/infinidat/infi.clickhouse_orm/tests/test_funcs.py'
g132
S'FuncsTestCase.test_logical_operators'
tp141
sI92
(S'/home/itais/workspace/infinidat/infi.clickhouse_orm/tests/test_funcs.py'
g132
S'FuncsTestCase.test_string_functions'
tp142
sI93
(S'/home/itais/workspace/infinidat/infi.clickhouse_orm/tests/test_funcs.py'
g132
S'FuncsTestCase.test_type_conversion_functions'
tp143
sI94
(S'/home/itais/workspace/infinidat/infi.clickhouse_orm/tests/test_inheritance.py'
S'tests.test_inheritance'
p144
S'InheritanceTestCase.test_create_table_sql'
tp145
sI95
(S'/home/itais/workspace/infinidat/infi.clickhouse_orm/tests/test_inheritance.py'
g144
S'InheritanceTestCase.test_field_inheritance'
tp146
sI96
(S'/home/itais/workspace/infinidat/infi.clickhouse_orm/tests/test_inheritance.py'
g144
S'InheritanceTestCase.test_get_field'
tp147
sI97
(S'/home/itais/workspace/infinidat/infi.clickhouse_orm/tests/test_join.py'
S'tests.test_join'
p148
S'JoinTest.test_with_db_name'
tp149
sI98
(S'/home/itais/workspace/infinidat/infi.clickhouse_orm/tests/test_join.py'
g148
S'JoinTest.test_with_subquery'
tp150
sI99
(S'/home/itais/workspace/infinidat/infi.clickhouse_orm/tests/test_join.py'
g148
S'JoinTest.test_without_db_name'
tp151
sI100
(S'/home/itais/workspace/infinidat/infi.clickhouse_orm/tests/test_materialized_fields.py'
S'tests.test_materialized_fields'
p152
S'MaterializedFieldsTest.test_assignment_error'
tp153
sI101
(S'/home/itais/workspace/infinidat/infi.clickhouse_orm/tests/test_materialized_fields.py'
g152
S'MaterializedFieldsTest.test_duplicate_default'
tp154
sI102
(S'/home/itais/workspace/infinidat/infi.clickhouse_orm/tests/test_materialized_fields.py'
g152
S'MaterializedFieldsTest.test_insert_and_select'
tp155
sI103
(S'/home/itais/workspace/infinidat/infi.clickhouse_orm/tests/test_materialized_fields.py'
g152
S'MaterializedFieldsTest.test_wrong_field'
tp156
sI104
(S'/home/itais/workspace/infinidat/infi.clickhouse_orm/tests/test_migrations.py'
S'tests.test_migrations'
p157
S'MigrationsTestCase.test_migrations'
tp158
sI105
(S'/home/itais/workspace/infinidat/infi.clickhouse_orm/tests/test_models.py'
S'tests.test_models'
p159
S'ModelTestCase.test_assignment'
tp160
sI106
(S'/home/itais/workspace/infinidat/infi.clickhouse_orm/tests/test_models.py'
g159
S'ModelTestCase.test_assignment_error'
tp161
sI107
(S'/home/itais/workspace/infinidat/infi.clickhouse_orm/tests/test_models.py'
g159
S'ModelTestCase.test_defaults'
tp162
sI108
(S'/home/itais/workspace/infinidat/infi.clickhouse_orm/tests/test_models.py'
g159
S'ModelTestCase.test_field_name_in_error_message_for_invalid_value_in_assignment'
tp163
sI109
(S'/home/itais/workspace/infinidat/infi.clickhouse_orm/tests/test_models.py'
g159
S'ModelTestCase.test_field_name_in_error_message_for_invalid_value_in_constructor'
tp164
sI110
(S'/home/itais/workspace/infinidat/infi.clickhouse_orm/tests/test_models.py'
g159
S'ModelTestCase.test_string_conversion'
tp165
sI111
(S'/home/itais/workspace/infinidat/infi.clickhouse_orm/tests/test_models.py'
g159
S'ModelTestCase.test_to_dict'
tp166
sI112
(S'/home/itais/workspace/infinidat/infi.clickhouse_orm/tests/test_nullable_fields.py'
S'tests.test_nullable_fields'
p167
S'NullableFieldsTest.test_ad_hoc_model'
tp168
sI113
(S'/home/itais/workspace/infinidat/infi.clickhouse_orm/tests/test_nullable_fields.py'
g167
S'NullableFieldsTest.test_insert_and_select'
tp169
sI114
(S'/home/itais/workspace/infinidat/infi.clickhouse_orm/tests/test_nullable_fields.py'
g167
S'NullableFieldsTest.test_isinstance'
tp170
sI115
(S'/home/itais/workspace/infinidat/infi.clickhouse_orm/tests/test_nullable_fields.py'
g167
S'NullableFieldsTest.test_nullable_datetime_field'
tp171
sI116
(S'/home/itais/workspace/infinidat/infi.clickhouse_orm/tests/test_nullable_fields.py'
g167
S'NullableFieldsTest.test_nullable_string_field'
tp172
sI117
(S'/home/itais/workspace/infinidat/infi.clickhouse_orm/tests/test_nullable_fields.py'
g167
S'NullableFieldsTest.test_nullable_uint8_field'
tp173
sI118
(S'/home/itais/workspace/infinidat/infi.clickhouse_orm/tests/test_querysets.py'
S'tests.test_querysets'
p174
S'AggregateTestCase.test_aggregate_no_grouping'
tp175
sI119
(S'/home/itais/workspace/infinidat/infi.clickhouse_orm/tests/test_querysets.py'
g174
S'AggregateTestCase.test_aggregate_on_aggregate'
tp176
sI120
(S'/home/itais/workspace/infinidat/infi.clickhouse_orm/tests/test_querysets.py'
g174
S'AggregateTestCase.test_aggregate_with_distinct'
tp177
sI121
(S'/home/itais/workspace/infinidat/infi.clickhouse_orm/tests/test_querysets.py'
g174
S'AggregateTestCase.test_aggregate_with_explicit_grouping'
tp178
sI122
(S'/home/itais/workspace/infinidat/infi.clickhouse_orm/tests/test_querysets.py'
g174
S'AggregateTestCase.test_aggregate_with_filter'
tp179
sI123
(S'/home/itais/workspace/infinidat/infi.clickhouse_orm/tests/test_querysets.py'
g174
S'AggregateTestCase.test_aggregate_with_implicit_grouping'
tp180
sI124
(S'/home/itais/workspace/infinidat/infi.clickhouse_orm/tests/test_querysets.py'
g174
S'AggregateTestCase.test_aggregate_with_indexing'
tp181
sI125
(S'/home/itais/workspace/infinidat/infi.clickhouse_orm/tests/test_querysets.py'
g174
S'AggregateTestCase.test_aggregate_with_no_calculated_fields'
tp182
sI126
(S'/home/itais/workspace/infinidat/infi.clickhouse_orm/tests/test_querysets.py'
g174
S'AggregateTestCase.test_aggregate_with_only'
tp183
sI127
(S'/home/itais/workspace/infinidat/infi.clickhouse_orm/tests/test_querysets.py'
g174
S'AggregateTestCase.test_aggregate_with_order_by'
tp184
sI128
(S'/home/itais/workspace/infinidat/infi.clickhouse_orm/tests/test_querysets.py'
g174
S'AggregateTestCase.test_aggregate_with_pagination'
tp185
sI129
(S'/home/itais/workspace/infinidat/infi.clickhouse_orm/tests/test_querysets.py'
g174
S'AggregateTestCase.test_aggregate_with_slicing'
tp186
sI130
(S'/home/itais/workspace/infinidat/infi.clickhouse_orm/tests/test_querysets.py'
g174
S'AggregateTestCase.test_aggregate_with_totals'
tp187
sI131
(S'/home/itais/workspace/infinidat/infi.clickhouse_orm/tests/test_querysets.py'
g174
S'AggregateTestCase.test_aggregate_with_wrong_grouping'
tp188
sI132
(S'/home/itais/workspace/infinidat/infi.clickhouse_orm/tests/test_querysets.py'
g174
S'AggregateTestCase.test_double_underscore_field'
tp189
sI133
(S'/home/itais/workspace/infinidat/infi.clickhouse_orm/tests/test_querysets.py'
g174
S'AggregateTestCase.test_filter_on_calculated_field'
tp190
sI134
(S'/home/itais/workspace/infinidat/infi.clickhouse_orm/tests/test_querysets.py'
g174
S'FuncsTestCase.test_arithmetic_operators'
tp191
sI135
(S'/home/itais/workspace/infinidat/infi.clickhouse_orm/tests/test_querysets.py'
g174
S'FuncsTestCase.test_comparison_operators'
tp192
sI136
(S'/home/itais/workspace/infinidat/infi.clickhouse_orm/tests/test_querysets.py'
g174
S'FuncsTestCase.test_filter_date_field'
tp193
sI137
(S'/home/itais/workspace/infinidat/infi.clickhouse_orm/tests/test_querysets.py'
g174
S'FuncsTestCase.test_filter_float_field'
tp194
sI138
(S'/home/itais/workspace/infinidat/infi.clickhouse_orm/tests/test_querysets.py'
g174
S'FuncsTestCase.test_func_as_field_value'
tp195
sI139
(S'/home/itais/workspace/infinidat/infi.clickhouse_orm/tests/test_querysets.py'
g174
S'FuncsTestCase.test_func_to_sql'
tp196
sI140
(S'/home/itais/workspace/infinidat/infi.clickhouse_orm/tests/test_querysets.py'
g174
S'QuerySetTestCase.test_alias_field'
tp197
sI141
(S'/home/itais/workspace/infinidat/infi.clickhouse_orm/tests/test_querysets.py'
g174
S'QuerySetTestCase.test_count_of_slice'
tp198
sI142
(S'/home/itais/workspace/infinidat/infi.clickhouse_orm/tests/test_querysets.py'
g174
S'QuerySetTestCase.test_distinct'
tp199
sI143
(S'/home/itais/workspace/infinidat/infi.clickhouse_orm/tests/test_querysets.py'
g174
S'QuerySetTestCase.test_filter_date_field'
tp200
sI144
(S'/home/itais/workspace/infinidat/infi.clickhouse_orm/tests/test_querysets.py'
g174
S'QuerySetTestCase.test_filter_enum_field'
tp201
sI145
(S'/home/itais/workspace/infinidat/infi.clickhouse_orm/tests/test_querysets.py'
g174
S'QuerySetTestCase.test_filter_float_field'
tp202
sI146
(S'/home/itais/workspace/infinidat/infi.clickhouse_orm/tests/test_querysets.py'
g174
S'QuerySetTestCase.test_filter_int_field'
tp203
sI147
(S'/home/itais/workspace/infinidat/infi.clickhouse_orm/tests/test_querysets.py'
g174
S'QuerySetTestCase.test_filter_null_value'
tp204
sI148
(S'/home/itais/workspace/infinidat/infi.clickhouse_orm/tests/test_querysets.py'
g174
S'QuerySetTestCase.test_filter_string_field'
tp205
sI149
(S'/home/itais/workspace/infinidat/infi.clickhouse_orm/tests/test_querysets.py'
g174
S'QuerySetTestCase.test_filter_unicode_string'
tp206
sI150
(S'/home/itais/workspace/infinidat/infi.clickhouse_orm/tests/test_querysets.py'
g174
S'QuerySetTestCase.test_filter_with_q_objects'
tp207
sI151
(S'/home/itais/workspace/infinidat/infi.clickhouse_orm/tests/test_querysets.py'
g174
S'QuerySetTestCase.test_final'
tp208
sI152
(S'/home/itais/workspace/infinidat/infi.clickhouse_orm/tests/test_querysets.py'
g174
S'QuerySetTestCase.test_in_subquery'
tp209
sI153
(S'/home/itais/workspace/infinidat/infi.clickhouse_orm/tests/test_querysets.py'
g174
S'QuerySetTestCase.test_invalid_filter'
tp210
sI154
(S'/home/itais/workspace/infinidat/infi.clickhouse_orm/tests/test_querysets.py'
g174
S'QuerySetTestCase.test_invalid_slicing'
tp211
sI155
(S'/home/itais/workspace/infinidat/infi.clickhouse_orm/tests/test_querysets.py'
g174
S'QuerySetTestCase.test_materialized_field'
tp212
sI156
(S'/home/itais/workspace/infinidat/infi.clickhouse_orm/tests/test_querysets.py'
g174
S'QuerySetTestCase.test_mixed_filter'
tp213
sI157
(S'/home/itais/workspace/infinidat/infi.clickhouse_orm/tests/test_querysets.py'
g174
S'QuerySetTestCase.test_multiple_exclude'
tp214
sI158
(S'/home/itais/workspace/infinidat/infi.clickhouse_orm/tests/test_querysets.py'
g174
S'QuerySetTestCase.test_mutiple_filter'
tp215
sI159
(S'/home/itais/workspace/infinidat/infi.clickhouse_orm/tests/test_querysets.py'
g174
S'QuerySetTestCase.test_no_filtering'
tp216
sI160
(S'/home/itais/workspace/infinidat/infi.clickhouse_orm/tests/test_querysets.py'
g174
S'QuerySetTestCase.test_only'
tp217
sI161
(S'/home/itais/workspace/infinidat/infi.clickhouse_orm/tests/test_querysets.py'
g174
S'QuerySetTestCase.test_order_by'
tp218
sI162
(S'/home/itais/workspace/infinidat/infi.clickhouse_orm/tests/test_querysets.py'
g174
S'QuerySetTestCase.test_pagination'
tp219
sI163
(S'/home/itais/workspace/infinidat/infi.clickhouse_orm/tests/test_querysets.py'
g174
S'QuerySetTestCase.test_pagination_invalid_page'
tp220
sI164
(S'/home/itais/workspace/infinidat/infi.clickhouse_orm/tests/test_querysets.py'
g174
S'QuerySetTestCase.test_pagination_last_page'
tp221
sI165
(S'/home/itais/workspace/infinidat/infi.clickhouse_orm/tests/test_querysets.py'
g174
S'QuerySetTestCase.test_pagination_with_conditions'
tp222
sI166
(S'/home/itais/workspace/infinidat/infi.clickhouse_orm/tests/test_querysets.py'
g174
S'QuerySetTestCase.test_prewhere'
tp223
sI167
(S'/home/itais/workspace/infinidat/infi.clickhouse_orm/tests/test_querysets.py'
g174
S'QuerySetTestCase.test_slicing'
tp224
sI168
(S'/home/itais/workspace/infinidat/infi.clickhouse_orm/tests/test_querysets.py'
g174
S'QuerySetTestCase.test_truthiness'
tp225
sI169
(S'/home/itais/workspace/infinidat/infi.clickhouse_orm/tests/test_readonly.py'
S'tests.test_readonly'
p226
S'ReadonlyTestCase.test_create_readonly_table'
tp227
sI170
(S'/home/itais/workspace/infinidat/infi.clickhouse_orm/tests/test_readonly.py'
g226
S'ReadonlyTestCase.test_drop_readonly_table'
tp228
sI171
(S'/home/itais/workspace/infinidat/infi.clickhouse_orm/tests/test_readonly.py'
g226
S'ReadonlyTestCase.test_insert_readonly'
tp229
sI172
(S'/home/itais/workspace/infinidat/infi.clickhouse_orm/tests/test_readonly.py'
g226
S'ReadonlyTestCase.test_nonexisting_readonly_database'
tp230
sI173
(S'/home/itais/workspace/infinidat/infi.clickhouse_orm/tests/test_readonly.py'
g226
S'ReadonlyTestCase.test_readonly_db_with_default_user'
tp231
sI174
(S'/home/itais/workspace/infinidat/infi.clickhouse_orm/tests/test_readonly.py'
g226
S'ReadonlyTestCase.test_readonly_db_with_readonly_user'
tp232
sI175
(S'/home/itais/workspace/infinidat/infi.clickhouse_orm/tests/test_server_errors.py'
S'tests.test_server_errors'
p233
S'ServerErrorTest.test_new_format'
tp234
sI176
(S'/home/itais/workspace/infinidat/infi.clickhouse_orm/tests/test_server_errors.py'
g233
S'ServerErrorTest.test_old_format'
tp235
sI177
(S'/home/itais/workspace/infinidat/infi.clickhouse_orm/tests/test_simple_fields.py'
S'tests.test_simple_fields'
p236
S'SimpleFieldsTest.test_date_field'
tp237
sI178
(S'/home/itais/workspace/infinidat/infi.clickhouse_orm/tests/test_simple_fields.py'
g236
S'SimpleFieldsTest.test_date_field_timezone'
tp238
sI179
(S'/home/itais/workspace/infinidat/infi.clickhouse_orm/tests/test_simple_fields.py'
g236
S'SimpleFieldsTest.test_datetime_field'
tp239
sI180
(S'/home/itais/workspace/infinidat/infi.clickhouse_orm/tests/test_simple_fields.py'
g236
S'SimpleFieldsTest.test_datetime_field_timezone'
tp240
sI181
(S'/home/itais/workspace/infinidat/infi.clickhouse_orm/tests/test_simple_fields.py'
g236
S'SimpleFieldsTest.test_uint8_field'
tp241
sI182
(S'/home/itais/workspace/infinidat/infi.clickhouse_orm/tests/test_system_models.py'
S'tests.test_system_models'
p242
S'SystemPartTest.test_attach_detach'
tp243
sI183
(S'/home/itais/workspace/infinidat/infi.clickhouse_orm/tests/test_system_models.py'
g242
S'SystemPartTest.test_drop'
tp244
sI184
(S'/home/itais/workspace/infinidat/infi.clickhouse_orm/tests/test_system_models.py'
g242
S'SystemPartTest.test_fetch'
tp245
sI185
(S'/home/itais/workspace/infinidat/infi.clickhouse_orm/tests/test_system_models.py'
g242
S'SystemPartTest.test_freeze'
tp246
sI186
(S'/home/itais/workspace/infinidat/infi.clickhouse_orm/tests/test_system_models.py'
g242
S'SystemPartTest.test_get_active'
tp247
sI187
(S'/home/itais/workspace/infinidat/infi.clickhouse_orm/tests/test_system_models.py'
g242
S'SystemPartTest.test_get_all'
tp248
sI188
(S'/home/itais/workspace/infinidat/infi.clickhouse_orm/tests/test_system_models.py'
g242
S'SystemPartTest.test_get_conditions'
tp249
sI189
(S'/home/itais/workspace/infinidat/infi.clickhouse_orm/tests/test_system_models.py'
g242
S'SystemPartTest.test_is_read_only'
tp250
sI190
(S'/home/itais/workspace/infinidat/infi.clickhouse_orm/tests/test_system_models.py'
g242
S'SystemPartTest.test_is_system_model'
tp251
sI191
(S'/home/itais/workspace/infinidat/infi.clickhouse_orm/tests/test_system_models.py'
g242
S'SystemPartTest.test_query'
tp252
sI192
(S'/home/itais/workspace/infinidat/infi.clickhouse_orm/tests/test_system_models.py'
g242
S'SystemTest.test_create_readonly_table'
tp253
sI193
(S'/home/itais/workspace/infinidat/infi.clickhouse_orm/tests/test_system_models.py'
g242
S'SystemTest.test_drop_readonly_table'
tp254
sI194
(S'/home/itais/workspace/infinidat/infi.clickhouse_orm/tests/test_system_models.py'
g242
S'SystemTest.test_insert_system'
tp255
sI195
(S'/home/itais/workspace/infinidat/infi.clickhouse_orm/tests/test_uuid_fields.py'
S'tests.test_uuid_fields'
p256
S'UUIDFieldsTest.test_uuid_field'
tp257
ss.